target datalayout = "e-m:e-p270:32:32-p271:32:32-p272:64:64-i64:64-i128:128-f80:128-n8:16:32:64-S128"
target triple = "x86_64-pc-linux-gnu"

%struct.switch_record_bitmaps_t = type { ptr, ptr }
%struct.topo_info_response_msg = type { i32, ptr, ptr }
%struct.topo_info = type { i16, i32, ptr, ptr, ptr }

@g_switch_nodes_maps = external global ptr, align 8
@g_topo_info_msg_ptr = external global ptr, align 8
@.str.2 = private unnamed_addr constant [22 x i8] c"slurm_load_topo error\00", align 1
@.str.3 = private unnamed_addr constant [9 x i8] c"common.c\00", align 1
@__func__.get_topo_conf = private unnamed_addr constant [14 x i8] c"get_topo_conf\00", align 1
@.str.4 = private unnamed_addr constant [37 x i8] c"Invalid node name (%s) in switch %s\0A\00", align 1

; Function Attrs: nounwind uwtable
define dso_local void @free_switch_nodes_maps(ptr noundef %0) #0 {
  %2 = alloca ptr, align 8
  store ptr %0, ptr %2, align 8
  br label %3

3:                                                ; preds = %33, %1
  %4 = load ptr, ptr %2, align 8
  %5 = getelementptr inbounds nuw %struct.switch_record_bitmaps_t, ptr %4, i32 1
  store ptr %5, ptr %2, align 8
  %6 = icmp ne ptr %4, null
  br i1 %6, label %7, label %34

7:                                                ; preds = %3
  %8 = load ptr, ptr %2, align 8
  %9 = getelementptr inbounds nuw %struct.switch_record_bitmaps_t, ptr %8, i32 0, i32 1
  %10 = load ptr, ptr %9, align 8
  %11 = icmp ne ptr %10, null
  br i1 %11, label %13, label %12

12:                                               ; preds = %7
  br label %34

13:                                               ; preds = %7
  br label %14

14:                                               ; preds = %13
  %15 = load ptr, ptr %2, align 8
  %16 = getelementptr inbounds nuw %struct.switch_record_bitmaps_t, ptr %15, i32 0, i32 1
  %17 = load ptr, ptr %16, align 8
  %18 = icmp ne ptr %17, null
  br i1 %18, label %19, label %22

19:                                               ; preds = %14
  %20 = load ptr, ptr %2, align 8
  %21 = getelementptr inbounds nuw %struct.switch_record_bitmaps_t, ptr %20, i32 0, i32 1
  call void @slurm_bit_free(ptr noundef %21)
  br label %22

22:                                               ; preds = %19, %14
  %23 = load ptr, ptr %2, align 8
  %24 = getelementptr inbounds nuw %struct.switch_record_bitmaps_t, ptr %23, i32 0, i32 1
  store ptr null, ptr %24, align 8
  br label %25

25:                                               ; preds = %22
  %26 = load ptr, ptr %2, align 8
  %27 = getelementptr inbounds nuw %struct.switch_record_bitmaps_t, ptr %26, i32 0, i32 1
  %28 = load ptr, ptr %27, align 8
  %29 = icmp ne ptr %28, null
  br i1 %29, label %30, label %33

30:                                               ; preds = %25
  %31 = load ptr, ptr %2, align 8
  %32 = getelementptr inbounds nuw %struct.switch_record_bitmaps_t, ptr %31, i32 0, i32 0
  call void @slurm_xfree(ptr noundef %32)
  br label %33

33:                                               ; preds = %30, %25
  br label %3, !llvm.loop !12

34:                                               ; preds = %12, %3
  store ptr null, ptr @g_switch_nodes_maps, align 8
  ret void
}

; Function Attrs: nounwind uwtable
define dso_local i32 @get_topo_conf() #0 {
  %1 = alloca i32, align 4
  %2 = alloca i32, align 4
  %3 = alloca ptr, align 8
  %4 = alloca i32, align 4
  call void @llvm.lifetime.start.p0(i64 4, ptr %2) #11
  call void @llvm.lifetime.start.p0(i64 8, ptr %3) #11
  %5 = load ptr, ptr @g_topo_info_msg_ptr, align 8
  %6 = icmp ne ptr %5, null
  br i1 %6, label %11, label %7

7:                                                ; preds = %0
  %8 = call i32 @slurm_load_topo(ptr noundef @g_topo_info_msg_ptr)
  %9 = icmp ne i32 %8, 0
  br i1 %9, label %10, label %11

10:                                               ; preds = %7
  call void @slurm_perror(ptr noundef @.str.2)
  store i32 -1, ptr %1, align 4
  store i32 1, ptr %4, align 4
  br label %85

11:                                               ; preds = %7, %0
  %12 = load ptr, ptr @g_topo_info_msg_ptr, align 8
  %13 = getelementptr inbounds nuw %struct.topo_info_response_msg, ptr %12, i32 0, i32 0
  %14 = load i32, ptr %13, align 8
  %15 = icmp eq i32 %14, 0
  br i1 %15, label %16, label %18

16:                                               ; preds = %11
  %17 = load ptr, ptr @g_topo_info_msg_ptr, align 8
  call void @slurm_free_topo_info_msg(ptr noundef %17)
  store ptr null, ptr @g_topo_info_msg_ptr, align 8
  store i32 -1, ptr %1, align 4
  store i32 1, ptr %4, align 4
  br label %85

18:                                               ; preds = %11
  %19 = load ptr, ptr @g_switch_nodes_maps, align 8
  %20 = icmp ne ptr %19, null
  br i1 %20, label %21, label %23

21:                                               ; preds = %18
  %22 = load ptr, ptr @g_switch_nodes_maps, align 8
  call void @free_switch_nodes_maps(ptr noundef %22)
  br label %23

23:                                               ; preds = %21, %18
  %24 = load ptr, ptr @g_topo_info_msg_ptr, align 8
  %25 = getelementptr inbounds nuw %struct.topo_info_response_msg, ptr %24, i32 0, i32 0
  %26 = load i32, ptr %25, align 8
  %27 = zext i32 %26 to i64
  %28 = mul i64 16, %27
  %29 = call ptr @slurm_xcalloc(i64 noundef 1, i64 noundef %28, i1 noundef zeroext true, i1 noundef zeroext false, ptr noundef @.str.3, i32 noundef 653, ptr noundef @__func__.get_topo_conf)
  store ptr %29, ptr @g_switch_nodes_maps, align 8
  %30 = load ptr, ptr @g_switch_nodes_maps, align 8
  store ptr %30, ptr %3, align 8
  store i32 0, ptr %2, align 4
  br label %31

31:                                               ; preds = %79, %23
  %32 = load i32, ptr %2, align 4
  %33 = load ptr, ptr @g_topo_info_msg_ptr, align 8
  %34 = getelementptr inbounds nuw %struct.topo_info_response_msg, ptr %33, i32 0, i32 0
  %35 = load i32, ptr %34, align 8
  %36 = icmp ult i32 %32, %35
  br i1 %36, label %37, label %84

37:                                               ; preds = %31
  %38 = load ptr, ptr @g_topo_info_msg_ptr, align 8
  %39 = getelementptr inbounds nuw %struct.topo_info_response_msg, ptr %38, i32 0, i32 1
  %40 = load ptr, ptr %39, align 8
  %41 = load i32, ptr %2, align 4
  %42 = sext i32 %41 to i64
  %43 = getelementptr inbounds %struct.topo_info, ptr %40, i64 %42
  %44 = getelementptr inbounds nuw %struct.topo_info, ptr %43, i32 0, i32 3
  %45 = load ptr, ptr %44, align 8
  %46 = icmp ne ptr %45, null
  br i1 %46, label %48, label %47

47:                                               ; preds = %37
  br label %79

48:                                               ; preds = %37
  %49 = load ptr, ptr @g_topo_info_msg_ptr, align 8
  %50 = getelementptr inbounds nuw %struct.topo_info_response_msg, ptr %49, i32 0, i32 1
  %51 = load ptr, ptr %50, align 8
  %52 = load i32, ptr %2, align 4
  %53 = sext i32 %52 to i64
  %54 = getelementptr inbounds %struct.topo_info, ptr %51, i64 %53
  %55 = getelementptr inbounds nuw %struct.topo_info, ptr %54, i32 0, i32 3
  %56 = load ptr, ptr %55, align 8
  %57 = load ptr, ptr %3, align 8
  %58 = getelementptr inbounds nuw %struct.switch_record_bitmaps_t, ptr %57, i32 0, i32 1
  %59 = call i32 @build_nodes_bitmap(ptr noundef %56, ptr noundef %58)
  %60 = icmp ne i32 %59, 0
  br i1 %60, label %61, label %78

61:                                               ; preds = %48
  %62 = load ptr, ptr @g_topo_info_msg_ptr, align 8
  %63 = getelementptr inbounds nuw %struct.topo_info_response_msg, ptr %62, i32 0, i32 1
  %64 = load ptr, ptr %63, align 8
  %65 = load i32, ptr %2, align 4
  %66 = sext i32 %65 to i64
  %67 = getelementptr inbounds %struct.topo_info, ptr %64, i64 %66
  %68 = getelementptr inbounds nuw %struct.topo_info, ptr %67, i32 0, i32 3
  %69 = load ptr, ptr %68, align 8
  %70 = load ptr, ptr @g_topo_info_msg_ptr, align 8
  %71 = getelementptr inbounds nuw %struct.topo_info_response_msg, ptr %70, i32 0, i32 1
  %72 = load ptr, ptr %71, align 8
  %73 = load i32, ptr %2, align 4
  %74 = sext i32 %73 to i64
  %75 = getelementptr inbounds %struct.topo_info, ptr %72, i64 %74
  %76 = getelementptr inbounds nuw %struct.topo_info, ptr %75, i32 0, i32 2
  %77 = load ptr, ptr %76, align 8
  call void (ptr, ...) @g_print(ptr noundef @.str.4, ptr noundef %69, ptr noundef %77)
  br label %78

78:                                               ; preds = %61, %48
  br label %79

79:                                               ; preds = %78, %47
  %80 = load i32, ptr %2, align 4
  %81 = add nsw i32 %80, 1
  store i32 %81, ptr %2, align 4
  %82 = load ptr, ptr %3, align 8
  %83 = getelementptr inbounds nuw %struct.switch_record_bitmaps_t, ptr %82, i32 1
  store ptr %83, ptr %3, align 8
  br label %31, !llvm.loop !15

84:                                               ; preds = %31
  store i32 0, ptr %1, align 4
  store i32 1, ptr %4, align 4
  br label %85

85:                                               ; preds = %84, %16, %10
  call void @llvm.lifetime.end.p0(i64 8, ptr %3) #11
  call void @llvm.lifetime.end.p0(i64 4, ptr %2) #11
  %86 = load i32, ptr %1, align 4
  ret i32 %86
}