; Function Attrs: nounwind uwtable
define dso_local range(i32 -1, 1) i32 @get_topo_conf() local_unnamed_addr #2 {
  %1 = load ptr, ptr @g_topo_info_msg_ptr, align 8
  %.not = icmp eq ptr %1, null
  br i1 %.not, label %2, label %5

2:                                                ; preds = %0
  %3 = tail call i32 @slurm_load_topo(ptr noundef nonnull @g_topo_info_msg_ptr) #16
  %.not12 = icmp eq i32 %3, 0
  br i1 %.not12, label %._crit_edge, label %4

._crit_edge:                                      ; preds = %2
  %.pre = load ptr, ptr @g_topo_info_msg_ptr, align 8
  br label %5

4:                                                ; preds = %2
  tail call void @slurm_perror(ptr noundef nonnull @.str.2) #16
  br label %.loopexit

5:                                                ; preds = %._crit_edge, %0
  %6 = phi ptr [ %.pre, %._crit_edge ], [ %1, %0 ]
  %7 = load i32, ptr %6, align 8
  %8 = icmp eq i32 %7, 0
  br i1 %8, label %9, label %10

9:                                                ; preds = %5
  tail call void @slurm_free_topo_info_msg(ptr noundef nonnull %6) #16
  store ptr null, ptr @g_topo_info_msg_ptr, align 8
  br label %.loopexit

10:                                               ; preds = %5
  %11 = load ptr, ptr @g_switch_nodes_maps, align 8
  %.not13 = icmp eq ptr %11, null
  br i1 %.not13, label %18, label %.lr.ph.i.preheader

.lr.ph.i.preheader:                               ; preds = %10
  %12 = getelementptr inbounds nuw i8, ptr %11, i64 24
  %13 = load ptr, ptr %12, align 8
  %.not7.i16 = icmp eq ptr %13, null
  br i1 %.not7.i16, label %free_switch_nodes_maps.exit, label %.lr.ph.i

.lr.ph.i:                                         ; preds = %.lr.ph.i.preheader, %.lr.ph.i
  %14 = phi ptr [ %16, %.lr.ph.i ], [ %12, %.lr.ph.i.preheader ]
  %.09.i17 = phi ptr [ %15, %.lr.ph.i ], [ %11, %.lr.ph.i.preheader ]
  %15 = getelementptr inbounds nuw i8, ptr %.09.i17, i64 16
  tail call void @slurm_bit_free(ptr noundef nonnull %14) #16
  store ptr null, ptr %14, align 8
  %16 = getelementptr inbounds nuw i8, ptr %.09.i17, i64 40
  %17 = load ptr, ptr %16, align 8
  %.not7.i = icmp eq ptr %17, null
  br i1 %.not7.i, label %free_switch_nodes_maps.exit.loopexit, label %.lr.ph.i

free_switch_nodes_maps.exit.loopexit:             ; preds = %.lr.ph.i
  %.pre24.pre = load ptr, ptr @g_topo_info_msg_ptr, align 8
  br label %free_switch_nodes_maps.exit

free_switch_nodes_maps.exit:                      ; preds = %free_switch_nodes_maps.exit.loopexit, %.lr.ph.i.preheader
  %.pre24 = phi ptr [ %.pre24.pre, %free_switch_nodes_maps.exit.loopexit ], [ %6, %.lr.ph.i.preheader ]
  store ptr null, ptr @g_switch_nodes_maps, align 8
  %.pre25 = load i32, ptr %.pre24, align 8
  br label %18

18:                                               ; preds = %free_switch_nodes_maps.exit, %10
  %19 = phi i32 [ %.pre25, %free_switch_nodes_maps.exit ], [ %7, %10 ]
  %20 = zext i32 %19 to i64
  %21 = shl nuw nsw i64 %20, 4
  %22 = tail call ptr @slurm_xcalloc(i64 noundef 1, i64 noundef %21, i1 noundef zeroext true, i1 noundef zeroext false, ptr noundef nonnull @.str.3, i32 noundef 653, ptr noundef nonnull @__func__.get_topo_conf) #16
  store ptr %22, ptr @g_switch_nodes_maps, align 8
  %23 = load ptr, ptr @g_topo_info_msg_ptr, align 8
  %24 = load i32, ptr %23, align 8
  %.not21 = icmp eq i32 %24, 0
  br i1 %.not21, label %.loopexit, label %.lr.ph20

.lr.ph20:                                         ; preds = %18, %41
  %25 = phi ptr [ %42, %41 ], [ %23, %18 ]
  %indvars.iv = phi i64 [ %indvars.iv.next, %41 ], [ 0, %18 ]
  %.019 = phi ptr [ %43, %41 ], [ %22, %18 ]
  %26 = getelementptr inbounds nuw i8, ptr %25, i64 8
  %27 = load ptr, ptr %26, align 8
  %28 = getelementptr inbounds nuw %struct.topo_info, ptr %27, i64 %indvars.iv, i32 3
  %29 = load ptr, ptr %28, align 8
  %.not14 = icmp eq ptr %29, null
  br i1 %.not14, label %41, label %30

30:                                               ; preds = %.lr.ph20
  %31 = getelementptr inbounds nuw i8, ptr %.019, i64 8
  %32 = tail call i32 @build_nodes_bitmap(ptr noundef nonnull %29, ptr noundef nonnull %31)
  %.not15 = icmp eq i32 %32, 0
  %.pre27 = load ptr, ptr @g_topo_info_msg_ptr, align 8
  br i1 %.not15, label %41, label %33

33:                                               ; preds = %30
  %34 = getelementptr inbounds nuw i8, ptr %.pre27, i64 8
  %35 = load ptr, ptr %34, align 8
  %36 = getelementptr inbounds nuw %struct.topo_info, ptr %35, i64 %indvars.iv
  %37 = getelementptr inbounds nuw i8, ptr %36, i64 16
  %38 = load ptr, ptr %37, align 8
  %39 = getelementptr inbounds nuw i8, ptr %36, i64 8
  %40 = load ptr, ptr %39, align 8
  tail call void (ptr, ...) @g_print(ptr noundef nonnull @.str.4, ptr noundef %38, ptr noundef %40) #16
  %.pre26 = load ptr, ptr @g_topo_info_msg_ptr, align 8
  br label %41

41:                                               ; preds = %30, %33, %.lr.ph20
  %42 = phi ptr [ %.pre27, %30 ], [ %.pre26, %33 ], [ %25, %.lr.ph20 ]
  %indvars.iv.next = add nuw nsw i64 %indvars.iv, 1
  %43 = getelementptr inbounds nuw i8, ptr %.019, i64 16
  %44 = load i32, ptr %42, align 8
  %45 = zext i32 %44 to i64
  %46 = icmp samesign ult i64 %indvars.iv.next, %45
  br i1 %46, label %.lr.ph20, label %.loopexit, !llvm.loop !14

.loopexit:                                        ; preds = %41, %18, %9, %4
  %.09 = phi i32 [ -1, %9 ], [ -1, %4 ], [ 0, %18 ], [ 0, %41 ]
  ret i32 %.09
}